target datalayout = "e-m:e-p270:32:32-p271:32:32-p272:64:64-i64:64-i128:128-f80:128-n8:16:32:64-S128"
target triple = "x86_64-pc-linux-gnu"

%struct.Vec_Int_t_ = type { i32, i32, ptr }

; Function Attrs: inlinehint nounwind uwtable
define internal ptr @Vec_IntAllocArray(ptr noundef %0, i32 noundef %1) #2 {
  %3 = alloca ptr, align 8
  %4 = alloca i32, align 4
  %5 = alloca ptr, align 8
  store ptr %0, ptr %3, align 8, !tbaa !22
  store i32 %1, ptr %4, align 4, !tbaa !8
  call void @llvm.lifetime.start.p0(i64 8, ptr %5) #10
  %6 = call noalias ptr @malloc(i64 noundef 16) #12
  store ptr %6, ptr %5, align 8, !tbaa !61
  %7 = load i32, ptr %4, align 4, !tbaa !8
  %8 = load ptr, ptr %5, align 8, !tbaa !61
  %9 = getelementptr inbounds nuw %struct.Vec_Int_t_, ptr %8, i32 0, i32 1
  store i32 %7, ptr %9, align 4, !tbaa !62
  %10 = load i32, ptr %4, align 4, !tbaa !8
  %11 = load ptr, ptr %5, align 8, !tbaa !61
  %12 = getelementptr inbounds nuw %struct.Vec_Int_t_, ptr %11, i32 0, i32 0
  store i32 %10, ptr %12, align 8, !tbaa !66
  %13 = load ptr, ptr %3, align 8, !tbaa !22
  %14 = load ptr, ptr %5, align 8, !tbaa !61
  %15 = getelementptr inbounds nuw %struct.Vec_Int_t_, ptr %14, i32 0, i32 2
  store ptr %13, ptr %15, align 8, !tbaa !63
  %16 = load ptr, ptr %5, align 8, !tbaa !61
  call void @llvm.lifetime.end.p0(i64 8, ptr %5) #10
  ret ptr %16
}

; Function Attrs: inlinehint nounwind uwtable
define internal i32 @Gia_AigerReadInt(ptr noundef %0) #2 {
  %2 = alloca ptr, align 8
  %3 = alloca i32, align 4
  %4 = alloca i32, align 4
  store ptr %0, ptr %2, align 8, !tbaa !10
  call void @llvm.lifetime.start.p0(i64 4, ptr %3) #10
  call void @llvm.lifetime.start.p0(i64 4, ptr %4) #10
  store i32 0, ptr %4, align 4, !tbaa !8
  store i32 0, ptr %3, align 4, !tbaa !8
  br label %5

5:                                                ; preds = %16, %1
  %6 = load i32, ptr %3, align 4, !tbaa !8
  %7 = icmp slt i32 %6, 4
  br i1 %7, label %8, label %19

8:                                                ; preds = %5
  %9 = load i32, ptr %4, align 4, !tbaa !8
  %10 = shl i32 %9, 8
  %11 = load ptr, ptr %2, align 8, !tbaa !10
  %12 = getelementptr inbounds nuw i8, ptr %11, i32 1
  store ptr %12, ptr %2, align 8, !tbaa !10
  %13 = load i8, ptr %11, align 1, !tbaa !17
  %14 = zext i8 %13 to i32
  %15 = or i32 %10, %14
  store i32 %15, ptr %4, align 4, !tbaa !8
  br label %16

16:                                               ; preds = %8
  %17 = load i32, ptr %3, align 4, !tbaa !8
  %18 = add nsw i32 %17, 1
  store i32 %18, ptr %3, align 4, !tbaa !8
  br label %5, !llvm.loop !18

19:                                               ; preds = %5
  %20 = load i32, ptr %4, align 4, !tbaa !8
  call void @llvm.lifetime.end.p0(i64 4, ptr %4) #10
  call void @llvm.lifetime.end.p0(i64 4, ptr %3) #10
  ret i32 %20
}

; Function Attrs: nounwind uwtable
define ptr @Gia_AigerReadMappingDoc(ptr noundef %0, i32 noundef %1) #0 {
  %3 = alloca ptr, align 8
  %4 = alloca i32, align 4
  %5 = alloca ptr, align 8
  %6 = alloca i32, align 4
  %7 = alloca i32, align 4
  %8 = alloca i32, align 4
  %9 = alloca i32, align 4
  %10 = alloca i32, align 4
  %11 = alloca i32, align 4
  %12 = alloca i32, align 4
  store ptr %0, ptr %3, align 8, !tbaa !3
  store i32 %1, ptr %4, align 4, !tbaa !8
  call void @llvm.lifetime.start.p0(i64 8, ptr %5) #10
  call void @llvm.lifetime.start.p0(i64 4, ptr %6) #10
  call void @llvm.lifetime.start.p0(i64 4, ptr %7) #10
  call void @llvm.lifetime.start.p0(i64 4, ptr %8) #10
  call void @llvm.lifetime.start.p0(i64 4, ptr %9) #10
  call void @llvm.lifetime.start.p0(i64 4, ptr %10) #10
  call void @llvm.lifetime.start.p0(i64 4, ptr %11) #10
  call void @llvm.lifetime.start.p0(i64 4, ptr %12) #10
  %13 = load ptr, ptr %3, align 8, !tbaa !3
  %14 = load ptr, ptr %13, align 8, !tbaa !10
  %15 = call i32 @Gia_AigerReadInt(ptr noundef %14)
  store i32 %15, ptr %6, align 4, !tbaa !8
  %16 = load ptr, ptr %3, align 8, !tbaa !3
  %17 = load ptr, ptr %16, align 8, !tbaa !10
  %18 = getelementptr inbounds i8, ptr %17, i64 4
  store ptr %18, ptr %16, align 8, !tbaa !10
  %19 = load ptr, ptr %3, align 8, !tbaa !3
  %20 = load ptr, ptr %19, align 8, !tbaa !10
  %21 = call i32 @Gia_AigerReadInt(ptr noundef %20)
  store i32 %21, ptr %7, align 4, !tbaa !8
  %22 = load ptr, ptr %3, align 8, !tbaa !3
  %23 = load ptr, ptr %22, align 8, !tbaa !10
  %24 = getelementptr inbounds i8, ptr %23, i64 4
  store ptr %24, ptr %22, align 8, !tbaa !10
  %25 = load i32, ptr %4, align 4, !tbaa !8
  %26 = load i32, ptr %7, align 4, !tbaa !8
  %27 = add nsw i32 %26, 2
  %28 = load i32, ptr %6, align 4, !tbaa !8
  %29 = mul nsw i32 %27, %28
  %30 = add nsw i32 %25, %29
  %31 = sext i32 %30 to i64
  %32 = call noalias ptr @calloc(i64 noundef %31, i64 noundef 4) #11
  store ptr %32, ptr %5, align 8, !tbaa !22
  %33 = load i32, ptr %4, align 4, !tbaa !8
  store i32 %33, ptr %12, align 4, !tbaa !8
  store i32 0, ptr %10, align 4, !tbaa !8
  br label %34

34:                                               ; preds = %88, %2
  %35 = load i32, ptr %10, align 4, !tbaa !8
  %36 = load i32, ptr %6, align 4, !tbaa !8
  %37 = icmp slt i32 %35, %36
  br i1 %37, label %38, label %91

38:                                               ; preds = %34
  %39 = load ptr, ptr %3, align 8, !tbaa !3
  %40 = load ptr, ptr %39, align 8, !tbaa !10
  %41 = call i32 @Gia_AigerReadInt(ptr noundef %40)
  store i32 %41, ptr %8, align 4, !tbaa !8
  %42 = load ptr, ptr %3, align 8, !tbaa !3
  %43 = load ptr, ptr %42, align 8, !tbaa !10
  %44 = getelementptr inbounds i8, ptr %43, i64 4
  store ptr %44, ptr %42, align 8, !tbaa !10
  %45 = load ptr, ptr %3, align 8, !tbaa !3
  %46 = load ptr, ptr %45, align 8, !tbaa !10
  %47 = call i32 @Gia_AigerReadInt(ptr noundef %46)
  store i32 %47, ptr %9, align 4, !tbaa !8
  %48 = load ptr, ptr %3, align 8, !tbaa !3
  %49 = load ptr, ptr %48, align 8, !tbaa !10
  %50 = getelementptr inbounds i8, ptr %49, i64 4
  store ptr %50, ptr %48, align 8, !tbaa !10
  %51 = load i32, ptr %12, align 4, !tbaa !8
  %52 = load ptr, ptr %5, align 8, !tbaa !22
  %53 = load i32, ptr %8, align 4, !tbaa !8
  %54 = sext i32 %53 to i64
  %55 = getelementptr inbounds i32, ptr %52, i64 %54
  store i32 %51, ptr %55, align 4, !tbaa !8
  %56 = load i32, ptr %9, align 4, !tbaa !8
  %57 = load ptr, ptr %5, align 8, !tbaa !22
  %58 = load i32, ptr %12, align 4, !tbaa !8
  %59 = add nsw i32 %58, 1
  store i32 %59, ptr %12, align 4, !tbaa !8
  %60 = sext i32 %58 to i64
  %61 = getelementptr inbounds i32, ptr %57, i64 %60
  store i32 %56, ptr %61, align 4, !tbaa !8
  store i32 0, ptr %11, align 4, !tbaa !8
  br label %62

62:                                               ; preds = %78, %38
  %63 = load i32, ptr %11, align 4, !tbaa !8
  %64 = load i32, ptr %9, align 4, !tbaa !8
  %65 = icmp slt i32 %63, %64
  br i1 %65, label %66, label %81

66:                                               ; preds = %62
  %67 = load ptr, ptr %3, align 8, !tbaa !3
  %68 = load ptr, ptr %67, align 8, !tbaa !10
  %69 = call i32 @Gia_AigerReadInt(ptr noundef %68)
  %70 = load ptr, ptr %5, align 8, !tbaa !22
  %71 = load i32, ptr %12, align 4, !tbaa !8
  %72 = add nsw i32 %71, 1
  store i32 %72, ptr %12, align 4, !tbaa !8
  %73 = sext i32 %71 to i64
  %74 = getelementptr inbounds i32, ptr %70, i64 %73
  store i32 %69, ptr %74, align 4, !tbaa !8
  %75 = load ptr, ptr %3, align 8, !tbaa !3
  %76 = load ptr, ptr %75, align 8, !tbaa !10
  %77 = getelementptr inbounds i8, ptr %76, i64 4
  store ptr %77, ptr %75, align 8, !tbaa !10
  br label %78

78:                                               ; preds = %66
  %79 = load i32, ptr %11, align 4, !tbaa !8
  %80 = add nsw i32 %79, 1
  store i32 %80, ptr %11, align 4, !tbaa !8
  br label %62, !llvm.loop !64

81:                                               ; preds = %62
  %82 = load i32, ptr %8, align 4, !tbaa !8
  %83 = load ptr, ptr %5, align 8, !tbaa !22
  %84 = load i32, ptr %12, align 4, !tbaa !8
  %85 = add nsw i32 %84, 1
  store i32 %85, ptr %12, align 4, !tbaa !8
  %86 = sext i32 %84 to i64
  %87 = getelementptr inbounds i32, ptr %83, i64 %86
  store i32 %82, ptr %87, align 4, !tbaa !8
  br label %88

88:                                               ; preds = %81
  %89 = load i32, ptr %10, align 4, !tbaa !8
  %90 = add nsw i32 %89, 1
  store i32 %90, ptr %10, align 4, !tbaa !8
  br label %34, !llvm.loop !65

91:                                               ; preds = %34
  %92 = load ptr, ptr %5, align 8, !tbaa !22
  %93 = load i32, ptr %12, align 4, !tbaa !8
  %94 = call ptr @Vec_IntAllocArray(ptr noundef %92, i32 noundef %93)
  call void @llvm.lifetime.end.p0(i64 4, ptr %12) #10
  call void @llvm.lifetime.end.p0(i64 4, ptr %11) #10
  call void @llvm.lifetime.end.p0(i64 4, ptr %10) #10
  call void @llvm.lifetime.end.p0(i64 4, ptr %9) #10
  call void @llvm.lifetime.end.p0(i64 4, ptr %8) #10
  call void @llvm.lifetime.end.p0(i64 4, ptr %7) #10
  call void @llvm.lifetime.end.p0(i64 4, ptr %6) #10
  call void @llvm.lifetime.end.p0(i64 8, ptr %5) #10
  ret ptr %94
}