; Function Attrs: nofree nounwind uwtable
define noalias noundef ptr @Gia_AigerReadMappingDoc(ptr noundef captures(none) %0, i32 noundef %1) local_unnamed_addr #0 {
  %3 = load ptr, ptr %0, align 8, !tbaa !3
  br label %4

4:                                                ; preds = %4, %2
  %.08.i = phi i32 [ 0, %2 ], [ %9, %4 ]
  %.047.i = phi i32 [ 0, %2 ], [ %10, %4 ]
  %.056.i = phi ptr [ %3, %2 ], [ %6, %4 ]
  %5 = shl i32 %.08.i, 8
  %6 = getelementptr inbounds nuw i8, ptr %.056.i, i64 1
  %7 = load i8, ptr %.056.i, align 1, !tbaa !8
  %8 = zext i8 %7 to i32
  %9 = or disjoint i32 %5, %8
  %10 = add nuw nsw i32 %.047.i, 1
  %exitcond.not.i = icmp eq i32 %10, 4
  br i1 %exitcond.not.i, label %Gia_AigerReadInt.exit, label %4, !llvm.loop !9

Gia_AigerReadInt.exit:                            ; preds = %4
  %11 = getelementptr inbounds nuw i8, ptr %3, i64 4
  store ptr %11, ptr %0, align 8, !tbaa !3
  br label %12

12:                                               ; preds = %12, %Gia_AigerReadInt.exit
  %.08.i34 = phi i32 [ 0, %Gia_AigerReadInt.exit ], [ %17, %12 ]
  %.047.i35 = phi i32 [ 0, %Gia_AigerReadInt.exit ], [ %18, %12 ]
  %.056.i36 = phi ptr [ %11, %Gia_AigerReadInt.exit ], [ %14, %12 ]
  %13 = shl i32 %.08.i34, 8
  %14 = getelementptr inbounds nuw i8, ptr %.056.i36, i64 1
  %15 = load i8, ptr %.056.i36, align 1, !tbaa !8
  %16 = zext i8 %15 to i32
  %17 = or disjoint i32 %13, %16
  %18 = add nuw nsw i32 %.047.i35, 1
  %exitcond.not.i37 = icmp eq i32 %18, 4
  br i1 %exitcond.not.i37, label %Gia_AigerReadInt.exit38, label %12, !llvm.loop !9

Gia_AigerReadInt.exit38:                          ; preds = %12
  %19 = getelementptr inbounds nuw i8, ptr %3, i64 8
  store ptr %19, ptr %0, align 8, !tbaa !3
  %20 = add nsw i32 %17, 2
  %21 = mul nsw i32 %20, %9
  %22 = add nsw i32 %21, %1
  %23 = sext i32 %22 to i64
  %24 = tail call noalias ptr @calloc(i64 noundef %23, i64 noundef 4) #15
  %25 = icmp sgt i32 %9, 0
  br i1 %25, label %.lr.ph64, label %._crit_edge65

.lr.ph64:                                         ; preds = %Gia_AigerReadInt.exit38
  %26 = or disjoint i32 %5, %8
  br label %27

27:                                               ; preds = %.lr.ph64, %._crit_edge
  %.promoted68 = phi ptr [ %19, %.lr.ph64 ], [ %.promoted69, %._crit_edge ]
  %.063 = phi i32 [ %1, %.lr.ph64 ], [ %63, %._crit_edge ]
  %.03362 = phi i32 [ 0, %.lr.ph64 ], [ %66, %._crit_edge ]
  br label %28

28:                                               ; preds = %28, %27
  %.08.i39 = phi i32 [ 0, %27 ], [ %33, %28 ]
  %.047.i40 = phi i32 [ 0, %27 ], [ %34, %28 ]
  %.056.i41 = phi ptr [ %.promoted68, %27 ], [ %30, %28 ]
  %29 = shl i32 %.08.i39, 8
  %30 = getelementptr inbounds nuw i8, ptr %.056.i41, i64 1
  %31 = load i8, ptr %.056.i41, align 1, !tbaa !8
  %32 = zext i8 %31 to i32
  %33 = or disjoint i32 %29, %32
  %34 = add nuw nsw i32 %.047.i40, 1
  %exitcond.not.i42 = icmp eq i32 %34, 4
  br i1 %exitcond.not.i42, label %Gia_AigerReadInt.exit43, label %28, !llvm.loop !9

Gia_AigerReadInt.exit43:                          ; preds = %28
  %35 = getelementptr inbounds nuw i8, ptr %.promoted68, i64 4
  store ptr %35, ptr %0, align 8, !tbaa !3
  br label %36

36:                                               ; preds = %36, %Gia_AigerReadInt.exit43
  %.08.i44 = phi i32 [ 0, %Gia_AigerReadInt.exit43 ], [ %41, %36 ]
  %.047.i45 = phi i32 [ 0, %Gia_AigerReadInt.exit43 ], [ %42, %36 ]
  %.056.i46 = phi ptr [ %35, %Gia_AigerReadInt.exit43 ], [ %38, %36 ]
  %37 = shl i32 %.08.i44, 8
  %38 = getelementptr inbounds nuw i8, ptr %.056.i46, i64 1
  %39 = load i8, ptr %.056.i46, align 1, !tbaa !8
  %40 = zext i8 %39 to i32
  %41 = or disjoint i32 %37, %40
  %42 = add nuw nsw i32 %.047.i45, 1
  %exitcond.not.i47 = icmp eq i32 %42, 4
  br i1 %exitcond.not.i47, label %Gia_AigerReadInt.exit48, label %36, !llvm.loop !9

Gia_AigerReadInt.exit48:                          ; preds = %36
  %43 = getelementptr inbounds nuw i8, ptr %.promoted68, i64 8
  store ptr %43, ptr %0, align 8, !tbaa !3
  %44 = sext i32 %33 to i64
  %45 = getelementptr inbounds i32, ptr %24, i64 %44
  store i32 %.063, ptr %45, align 4, !tbaa !37
  %46 = sext i32 %.063 to i64
  %47 = getelementptr inbounds i32, ptr %24, i64 %46
  store i32 %41, ptr %47, align 4, !tbaa !37
  %.158 = add i32 %.063, 1
  %48 = icmp sgt i32 %41, 0
  br i1 %48, label %.lr.ph.preheader, label %._crit_edge

.lr.ph.preheader:                                 ; preds = %Gia_AigerReadInt.exit48
  %49 = sext i32 %.158 to i64
  br label %.lr.ph

.lr.ph:                                           ; preds = %.lr.ph.preheader, %Gia_AigerReadInt.exit53
  %indvars.iv = phi i64 [ %49, %.lr.ph.preheader ], [ %indvars.iv.next, %Gia_AigerReadInt.exit53 ]
  %50 = phi ptr [ %43, %.lr.ph.preheader ], [ %59, %Gia_AigerReadInt.exit53 ]
  %.03259 = phi i32 [ 0, %.lr.ph.preheader ], [ %60, %Gia_AigerReadInt.exit53 ]
  br label %51

51:                                               ; preds = %51, %.lr.ph
  %.08.i49 = phi i32 [ 0, %.lr.ph ], [ %56, %51 ]
  %.047.i50 = phi i32 [ 0, %.lr.ph ], [ %57, %51 ]
  %.056.i51 = phi ptr [ %50, %.lr.ph ], [ %53, %51 ]
  %52 = shl i32 %.08.i49, 8
  %53 = getelementptr inbounds nuw i8, ptr %.056.i51, i64 1
  %54 = load i8, ptr %.056.i51, align 1, !tbaa !8
  %55 = zext i8 %54 to i32
  %56 = or disjoint i32 %52, %55
  %57 = add nuw nsw i32 %.047.i50, 1
  %exitcond.not.i52 = icmp eq i32 %57, 4
  br i1 %exitcond.not.i52, label %Gia_AigerReadInt.exit53, label %51, !llvm.loop !9

Gia_AigerReadInt.exit53:                          ; preds = %51
  %58 = getelementptr inbounds i32, ptr %24, i64 %indvars.iv
  store i32 %56, ptr %58, align 4, !tbaa !37
  %59 = getelementptr inbounds nuw i8, ptr %50, i64 4
  store ptr %59, ptr %0, align 8, !tbaa !3
  %60 = add nuw nsw i32 %.03259, 1
  %indvars.iv.next = add nsw i64 %indvars.iv, 1
  %exitcond.not = icmp eq i32 %60, %41
  br i1 %exitcond.not, label %._crit_edge.loopexit, label %.lr.ph, !llvm.loop !57

._crit_edge.loopexit:                             ; preds = %Gia_AigerReadInt.exit53
  %61 = trunc nsw i64 %indvars.iv to i32
  %62 = trunc nsw i64 %indvars.iv.next to i32
  br label %._crit_edge

._crit_edge:                                      ; preds = %._crit_edge.loopexit, %Gia_AigerReadInt.exit48
  %.promoted69 = phi ptr [ %43, %Gia_AigerReadInt.exit48 ], [ %59, %._crit_edge.loopexit ]
  %.1.in.lcssa = phi i32 [ %.063, %Gia_AigerReadInt.exit48 ], [ %61, %._crit_edge.loopexit ]
  %.1.lcssa = phi i32 [ %.158, %Gia_AigerReadInt.exit48 ], [ %62, %._crit_edge.loopexit ]
  %63 = add nsw i32 %.1.in.lcssa, 2
  %64 = sext i32 %.1.lcssa to i64
  %65 = getelementptr inbounds i32, ptr %24, i64 %64
  store i32 %33, ptr %65, align 4, !tbaa !37
  %66 = add nuw nsw i32 %.03362, 1
  %exitcond80.not = icmp eq i32 %66, %26
  br i1 %exitcond80.not, label %._crit_edge65, label %27, !llvm.loop !58

._crit_edge65:                                    ; preds = %._crit_edge, %Gia_AigerReadInt.exit38
  %.0.lcssa = phi i32 [ %1, %Gia_AigerReadInt.exit38 ], [ %63, %._crit_edge ]
  %67 = tail call noalias dereferenceable_or_null(16) ptr @malloc(i64 noundef 16) #16
  %68 = getelementptr inbounds nuw i8, ptr %67, i64 4
  store i32 %.0.lcssa, ptr %68, align 4, !tbaa !56
  store i32 %.0.lcssa, ptr %67, align 8, !tbaa !59
  %69 = getelementptr inbounds nuw i8, ptr %67, i64 8
  store ptr %24, ptr %69, align 8, !tbaa !52
  ret ptr %67
}